CCS PCM C Compiler, Version 4.074, 22034               11-May-22 13:58

               Filename: lab_example.lst

               ROM used: 142 words (2%)
                         Largest free fragment is 2048
               RAM used: 11 (3%) at main() level
                         12 (3%) worst case
               Stack:    1 locations

*
0000:  MOVLW  00
0001:  MOVWF  0A
0002:  GOTO   028
0003:  NOP
.................... #include <16f887.h>  
.................... //////// Standard Header file for the PIC16F887 device //////////////// 
.................... #device PIC16F887 
.................... #list 
....................  
.................... #device *=16 ADC=8 // Khai bao during con tro 16-bt  
.................... #FUSES NOWDT, HS, NOPUT, NOBROWNOUT,NOPROTECT, NOLVP  
.................... #use delay(clock=8000000) // Khai bao su ðung Thach Anh 8 - Mhz 
*
0012:  MOVLW  25
0013:  MOVWF  04
0014:  BCF    03.7
0015:  MOVF   00,W
0016:  BTFSC  03.2
0017:  GOTO   025
0018:  MOVLW  02
0019:  MOVWF  78
001A:  CLRF   77
001B:  DECFSZ 77,F
001C:  GOTO   01B
001D:  DECFSZ 78,F
001E:  GOTO   01A
001F:  MOVLW  97
0020:  MOVWF  77
0021:  DECFSZ 77,F
0022:  GOTO   021
0023:  DECFSZ 00,F
0024:  GOTO   018
0025:  BCF    0A.3
0026:  BCF    0A.4
0027:  GOTO   084 (RETURN)
.................... const char led7[] = {0x3f,0x86, 0x5b, 0x4f,0x66,0x6d, 0x7d, 0x07,0x7f,0x6f}; 
.................... int i; 
.................... int k; 
.................... int j; 
.................... void main() 
.................... { 
0028:  CLRF   04
0029:  BCF    03.7
002A:  MOVLW  1F
002B:  ANDWF  03,F
002C:  BSF    03.5
002D:  BSF    03.6
002E:  MOVF   09,W
002F:  ANDLW  C0
0030:  MOVWF  09
0031:  BCF    03.6
0032:  BCF    1F.4
0033:  BCF    1F.5
0034:  MOVLW  00
0035:  BSF    03.6
0036:  MOVWF  08
0037:  BCF    03.5
0038:  CLRF   07
0039:  CLRF   08
003A:  CLRF   09
.................... set_tris_a(0x00);  
*
003E:  MOVLW  00
003F:  BSF    03.5
0040:  MOVWF  05
.................... set_tris_b(0x00);  
0041:  MOVWF  06
.................... set_tris_c(0x00); 
0042:  MOVWF  07
0043:  BCF    03.5
0044:  MOVWF  23
.................... set_tris_d(0x00); 
0045:  BSF    03.5
0046:  MOVWF  08
.................... output_a(0x07); 
0047:  CLRF   05
0048:  MOVLW  07
0049:  BCF    03.5
004A:  MOVWF  05
.................... while(true) 
.................... { 
.................... 	output_a(0x08); 
004B:  BSF    03.5
004C:  CLRF   05
004D:  MOVLW  08
004E:  BCF    03.5
004F:  MOVWF  05
....................  
.................... for(j=0;j<10;j++){ 
0050:  CLRF   22
0051:  MOVF   22,W
0052:  SUBLW  09
0053:  BTFSS  03.0
0054:  GOTO   08C
.................... 	output_b(~led7[j]); 
0055:  MOVF   22,W
0056:  CALL   004
0057:  MOVWF  78
0058:  MOVWF  24
0059:  COMF   24,F
005A:  BSF    03.5
005B:  CLRF   06
005C:  BCF    03.5
005D:  MOVF   24,W
005E:  MOVWF  06
.................... 	 
.................... for(i=0;i<10;i++){ 
005F:  CLRF   20
0060:  MOVF   20,W
0061:  SUBLW  09
0062:  BTFSS  03.0
0063:  GOTO   08A
....................  
.................... 	output_d(~led7[i]); 
0064:  MOVF   20,W
0065:  CALL   004
0066:  MOVWF  78
0067:  MOVWF  24
0068:  COMF   24,F
0069:  BSF    03.5
006A:  CLRF   08
006B:  BCF    03.5
006C:  MOVF   24,W
006D:  MOVWF  08
.................... 	 
.................... for(k=0;k<10;k++){ 
006E:  CLRF   21
006F:  MOVF   21,W
0070:  SUBLW  09
0071:  BTFSS  03.0
0072:  GOTO   088
....................  
.................... 	output_c(~led7[k]); 
0073:  MOVF   21,W
0074:  CALL   004
0075:  MOVWF  78
0076:  MOVWF  24
0077:  COMF   24,F
0078:  MOVLW  00
0079:  MOVWF  23
007A:  BSF    03.5
007B:  CLRF   07
007C:  BCF    03.5
007D:  MOVF   24,W
007E:  MOVWF  07
....................  
.................... 	delay_ms(500); 
007F:  MOVLW  02
0080:  MOVWF  24
0081:  MOVLW  FA
0082:  MOVWF  25
0083:  GOTO   012
0084:  DECFSZ 24,F
0085:  GOTO   081
.................... } 
0086:  INCF   21,F
0087:  GOTO   06F
.................... } 
0088:  INCF   20,F
0089:  GOTO   060
.................... } 
008A:  INCF   22,F
008B:  GOTO   051
....................  
....................  
.................... } 
008C:  GOTO   04B
.................... } 
008D:  SLEEP

Configuration Fuses:
   Word  1: 2CF2   HS NOWDT NOPUT MCLR NOPROTECT NOCPD NOBROWNOUT IESO FCMEN NOLVP NODEBUG
   Word  2: 3FFF   NOWRT BORV40
